target datalayout = "e-m:e-p270:32:32-p271:32:32-p272:64:64-i64:64-i128:128-f80:128-n8:16:32:64-S128"
target triple = "x86_64-pc-linux-gnu"

%struct._zval_struct = type { %union._zend_value, %union.anon.0, %union.anon.3 }
%union._zend_value = type { i64 }
%union.anon.0 = type { i32 }
%union.anon.3 = type { i32 }
%struct._zend_array = type { %struct._zend_refcounted_h, %union.anon.5, i32, %union.anon.7, i32, i32, i32, i32, i64, ptr }
%struct._zend_refcounted_h = type { i32, %union.anon }
%union.anon = type { i32 }
%union.anon.5 = type { i32 }
%union.anon.7 = type { ptr }
%struct._zend_class_entry = type { i8, ptr, %union.anon.10, i32, i32, i32, i32, ptr, ptr, ptr, %struct._zend_array, %struct._zend_array, %struct._zend_array, ptr, ptr, ptr, ptr, ptr, ptr, ptr, ptr, ptr, ptr, ptr, ptr, ptr, ptr, ptr, ptr, ptr, ptr, ptr, %union.anon.11, ptr, ptr, ptr, ptr, i32, i32, %union.anon.12, ptr, ptr, ptr, ptr, i32, ptr, ptr, %union.anon.13 }
%union.anon.10 = type { ptr }
%union.anon.11 = type { ptr }
%union.anon.12 = type { ptr }
%union.anon.13 = type { %struct.anon.14 }
%struct.anon.14 = type { ptr, i32, i32 }
%struct._zend_string = type { %struct._zend_refcounted_h, i64, i64, [1 x i8] }
%struct._zend_object = type { %struct._zend_refcounted_h, i32, ptr, ptr, ptr, [1 x %struct._zval_struct] }
%struct._timelib_time = type { i64, i64, i64, i64, i64, i64, i64, i32, ptr, ptr, i32, %struct._timelib_rel_time, i64, i32, i32, i32, i32, i32, i32, i32, i32, i32 }
%struct._timelib_rel_time = type { i64, i64, i64, i64, i64, i64, i64, i32, i32, i32, i32, i64, %struct.anon.4, i32, i32 }
%struct.anon.4 = type { i32, i64 }
%struct._php_period_obj = type { ptr, ptr, ptr, ptr, ptr, i32, i8, i8, i8, %struct._zend_object }
%struct.date_period_it = type { %struct._zend_object_iterator, %struct._zval_struct, ptr, i32 }
%struct._zend_object_iterator = type { %struct._zend_object, %struct._zval_struct, ptr, i64 }

@date_ce_period = hidden global ptr null, align 8
@date_ce_date_object_error = hidden global ptr null, align 8
@.str.383 = private unnamed_addr constant [105 x i8] c"Object of type %s has not been correctly initialized by calling parent::__construct() in its constructor\00", align 1
@.str.384 = private unnamed_addr constant [101 x i8] c"Object of type %s not been correctly initialized by calling parent::__construct() in its constructor\00", align 1
@.str.385 = private unnamed_addr constant [121 x i8] c"Object of type %s (inheriting %s) has not been correctly initialized by calling parent::__construct() in its constructor\00", align 1

; Function Attrs: nounwind uwtable
define internal void @date_period_it_invalidate_current(ptr noundef %0) #0 {
  %2 = alloca ptr, align 8
  %3 = alloca ptr, align 8
  %4 = alloca ptr, align 8
  store ptr %0, ptr %3, align 8
  %5 = load ptr, ptr %3, align 8
  store ptr %5, ptr %4, align 8
  %6 = load ptr, ptr %4, align 8
  %7 = getelementptr inbounds %struct.date_period_it, ptr %6, i32 0, i32 1
  store ptr %7, ptr %2, align 8
  %8 = load ptr, ptr %2, align 8
  %9 = getelementptr inbounds %struct._zval_struct, ptr %8, i32 0, i32 1
  %10 = load i8, ptr %9, align 8
  %11 = zext i8 %10 to i32
  %12 = icmp ne i32 %11, 0
  br i1 %12, label %13, label %21

13:                                               ; preds = %1
  %14 = load ptr, ptr %4, align 8
  %15 = getelementptr inbounds %struct.date_period_it, ptr %14, i32 0, i32 1
  call void @zval_ptr_dtor(ptr noundef %15)
  br label %16

16:                                               ; preds = %13
  %17 = load ptr, ptr %4, align 8
  %18 = getelementptr inbounds %struct.date_period_it, ptr %17, i32 0, i32 1
  %19 = getelementptr inbounds %struct._zval_struct, ptr %18, i32 0, i32 1
  store i32 0, ptr %19, align 8
  br label %20

20:                                               ; preds = %16
  br label %21

21:                                               ; preds = %20, %1
  ret void
}

; Function Attrs: nounwind uwtable
define internal void @date_period_advance(ptr noundef %0, ptr noundef %1) #0 {
  %3 = alloca ptr, align 8
  %4 = alloca ptr, align 8
  store ptr %0, ptr %3, align 8
  store ptr %1, ptr %4, align 8
  %5 = load ptr, ptr %3, align 8
  %6 = getelementptr inbounds %struct._timelib_time, ptr %5, i32 0, i32 16
  store i32 1, ptr %6, align 4
  %7 = load ptr, ptr %3, align 8
  %8 = getelementptr inbounds %struct._timelib_time, ptr %7, i32 0, i32 11
  %9 = load ptr, ptr %4, align 8
  call void @llvm.memcpy.p0.p0.i64(ptr align 8 %8, ptr align 8 %9, i64 104, i1 false)
  %10 = load ptr, ptr %3, align 8
  %11 = getelementptr inbounds %struct._timelib_time, ptr %10, i32 0, i32 18
  store i32 0, ptr %11, align 4
  %12 = load ptr, ptr %3, align 8
  call void @timelib_update_ts(ptr noundef %12, ptr noundef null)
  %13 = load ptr, ptr %3, align 8
  call void @timelib_update_from_sse(ptr noundef %13)
  ret void
}

; Function Attrs: nounwind uwtable
define internal void @date_throw_uninitialized_error(ptr noundef %0) #0 {
  %2 = alloca ptr, align 8
  %3 = alloca ptr, align 8
  store ptr %0, ptr %2, align 8
  %4 = load ptr, ptr %2, align 8
  %5 = getelementptr inbounds %struct._zend_class_entry, ptr %4, i32 0, i32 0
  %6 = load i8, ptr %5, align 8
  %7 = sext i8 %6 to i32
  %8 = icmp eq i32 %7, 1
  br i1 %8, label %9, label %16

9:                                                ; preds = %1
  %10 = load ptr, ptr @date_ce_date_object_error, align 8
  %11 = load ptr, ptr %2, align 8
  %12 = getelementptr inbounds %struct._zend_class_entry, ptr %11, i32 0, i32 1
  %13 = load ptr, ptr %12, align 8
  %14 = getelementptr inbounds %struct._zend_string, ptr %13, i32 0, i32 3
  %15 = getelementptr inbounds [1 x i8], ptr %14, i64 0, i64 0
  call void (ptr, ptr, ...) @zend_throw_error(ptr noundef %10, ptr noundef @.str.383, ptr noundef %15)
  br label %63

16:                                               ; preds = %1
  %17 = load ptr, ptr %2, align 8
  store ptr %17, ptr %3, align 8
  br label %18

18:                                               ; preds = %34, %16
  %19 = load ptr, ptr %3, align 8
  %20 = icmp ne ptr %19, null
  br i1 %20, label %21, label %32

21:                                               ; preds = %18
  %22 = load ptr, ptr %3, align 8
  %23 = getelementptr inbounds %struct._zend_class_entry, ptr %22, i32 0, i32 2
  %24 = load ptr, ptr %23, align 8
  %25 = icmp ne ptr %24, null
  br i1 %25, label %26, label %32

26:                                               ; preds = %21
  %27 = load ptr, ptr %3, align 8
  %28 = getelementptr inbounds %struct._zend_class_entry, ptr %27, i32 0, i32 0
  %29 = load i8, ptr %28, align 8
  %30 = sext i8 %29 to i32
  %31 = icmp eq i32 %30, 2
  br label %32

32:                                               ; preds = %26, %21, %18
  %33 = phi i1 [ false, %21 ], [ false, %18 ], [ %31, %26 ]
  br i1 %33, label %34, label %38

34:                                               ; preds = %32
  %35 = load ptr, ptr %3, align 8
  %36 = getelementptr inbounds %struct._zend_class_entry, ptr %35, i32 0, i32 2
  %37 = load ptr, ptr %36, align 8
  store ptr %37, ptr %3, align 8
  br label %18

38:                                               ; preds = %32
  %39 = load ptr, ptr %3, align 8
  %40 = getelementptr inbounds %struct._zend_class_entry, ptr %39, i32 0, i32 0
  %41 = load i8, ptr %40, align 8
  %42 = sext i8 %41 to i32
  %43 = icmp ne i32 %42, 1
  br i1 %43, label %44, label %51

44:                                               ; preds = %38
  %45 = load ptr, ptr @date_ce_date_object_error, align 8
  %46 = load ptr, ptr %2, align 8
  %47 = getelementptr inbounds %struct._zend_class_entry, ptr %46, i32 0, i32 1
  %48 = load ptr, ptr %47, align 8
  %49 = getelementptr inbounds %struct._zend_string, ptr %48, i32 0, i32 3
  %50 = getelementptr inbounds [1 x i8], ptr %49, i64 0, i64 0
  call void (ptr, ptr, ...) @zend_throw_error(ptr noundef %45, ptr noundef @.str.384, ptr noundef %50)
  br label %51

51:                                               ; preds = %44, %38
  %52 = load ptr, ptr @date_ce_date_object_error, align 8
  %53 = load ptr, ptr %2, align 8
  %54 = getelementptr inbounds %struct._zend_class_entry, ptr %53, i32 0, i32 1
  %55 = load ptr, ptr %54, align 8
  %56 = getelementptr inbounds %struct._zend_string, ptr %55, i32 0, i32 3
  %57 = getelementptr inbounds [1 x i8], ptr %56, i64 0, i64 0
  %58 = load ptr, ptr %3, align 8
  %59 = getelementptr inbounds %struct._zend_class_entry, ptr %58, i32 0, i32 1
  %60 = load ptr, ptr %59, align 8
  %61 = getelementptr inbounds %struct._zend_string, ptr %60, i32 0, i32 3
  %62 = getelementptr inbounds [1 x i8], ptr %61, i64 0, i64 0
  call void (ptr, ptr, ...) @zend_throw_error(ptr noundef %52, ptr noundef @.str.385, ptr noundef %57, ptr noundef %62)
  br label %63

63:                                               ; preds = %51, %9
  ret void
}

; Function Attrs: nounwind uwtable
define internal void @date_period_it_rewind(ptr noundef %0) #0 {
  %2 = alloca ptr, align 8
  %3 = alloca ptr, align 8
  store ptr %0, ptr %2, align 8
  %4 = load ptr, ptr %2, align 8
  store ptr %4, ptr %3, align 8
  %5 = load ptr, ptr %3, align 8
  %6 = getelementptr inbounds %struct.date_period_it, ptr %5, i32 0, i32 3
  store i32 0, ptr %6, align 8
  %7 = load ptr, ptr %3, align 8
  %8 = getelementptr inbounds %struct.date_period_it, ptr %7, i32 0, i32 2
  %9 = load ptr, ptr %8, align 8
  %10 = getelementptr inbounds %struct._php_period_obj, ptr %9, i32 0, i32 2
  %11 = load ptr, ptr %10, align 8
  %12 = icmp ne ptr %11, null
  br i1 %12, label %13, label %19

13:                                               ; preds = %1
  %14 = load ptr, ptr %3, align 8
  %15 = getelementptr inbounds %struct.date_period_it, ptr %14, i32 0, i32 2
  %16 = load ptr, ptr %15, align 8
  %17 = getelementptr inbounds %struct._php_period_obj, ptr %16, i32 0, i32 2
  %18 = load ptr, ptr %17, align 8
  call void @timelib_time_dtor(ptr noundef %18)
  br label %19

19:                                               ; preds = %13, %1
  %20 = load ptr, ptr %3, align 8
  %21 = getelementptr inbounds %struct.date_period_it, ptr %20, i32 0, i32 2
  %22 = load ptr, ptr %21, align 8
  %23 = getelementptr inbounds %struct._php_period_obj, ptr %22, i32 0, i32 0
  %24 = load ptr, ptr %23, align 8
  %25 = icmp ne ptr %24, null
  br i1 %25, label %28, label %26

26:                                               ; preds = %19
  %27 = load ptr, ptr @date_ce_period, align 8
  call void @date_throw_uninitialized_error(ptr noundef %27)
  br label %58

28:                                               ; preds = %19
  %29 = load ptr, ptr %3, align 8
  %30 = getelementptr inbounds %struct.date_period_it, ptr %29, i32 0, i32 2
  %31 = load ptr, ptr %30, align 8
  %32 = getelementptr inbounds %struct._php_period_obj, ptr %31, i32 0, i32 0
  %33 = load ptr, ptr %32, align 8
  %34 = call ptr @timelib_time_clone(ptr noundef %33)
  %35 = load ptr, ptr %3, align 8
  %36 = getelementptr inbounds %struct.date_period_it, ptr %35, i32 0, i32 2
  %37 = load ptr, ptr %36, align 8
  %38 = getelementptr inbounds %struct._php_period_obj, ptr %37, i32 0, i32 2
  store ptr %34, ptr %38, align 8
  %39 = load ptr, ptr %3, align 8
  %40 = getelementptr inbounds %struct.date_period_it, ptr %39, i32 0, i32 2
  %41 = load ptr, ptr %40, align 8
  %42 = getelementptr inbounds %struct._php_period_obj, ptr %41, i32 0, i32 7
  %43 = load i8, ptr %42, align 1
  %44 = trunc i8 %43 to i1
  br i1 %44, label %56, label %45

45:                                               ; preds = %28
  %46 = load ptr, ptr %3, align 8
  %47 = getelementptr inbounds %struct.date_period_it, ptr %46, i32 0, i32 2
  %48 = load ptr, ptr %47, align 8
  %49 = getelementptr inbounds %struct._php_period_obj, ptr %48, i32 0, i32 2
  %50 = load ptr, ptr %49, align 8
  %51 = load ptr, ptr %3, align 8
  %52 = getelementptr inbounds %struct.date_period_it, ptr %51, i32 0, i32 2
  %53 = load ptr, ptr %52, align 8
  %54 = getelementptr inbounds %struct._php_period_obj, ptr %53, i32 0, i32 4
  %55 = load ptr, ptr %54, align 8
  call void @date_period_advance(ptr noundef %50, ptr noundef %55)
  br label %56

56:                                               ; preds = %45, %28
  %57 = load ptr, ptr %2, align 8
  call void @date_period_it_invalidate_current(ptr noundef %57)
  br label %58

58:                                               ; preds = %56, %26
  ret void
}