; Function Attrs: nounwind uwtable
define internal void @date_period_it_rewind(ptr noundef %0) #0 {
  %2 = getelementptr inbounds i8, ptr %0, i64 112
  store i32 0, ptr %2, align 8
  %3 = getelementptr inbounds i8, ptr %0, i64 104
  %4 = load ptr, ptr %3, align 8
  %5 = getelementptr inbounds i8, ptr %4, i64 16
  %6 = load ptr, ptr %5, align 8
  %.not = icmp eq ptr %6, null
  br i1 %.not, label %8, label %7

7:                                                ; preds = %1
  tail call void @timelib_time_dtor(ptr noundef nonnull %6) #25
  %.pre = load ptr, ptr %3, align 8
  br label %8

8:                                                ; preds = %7, %1
  %9 = phi ptr [ %.pre, %7 ], [ %4, %1 ]
  %10 = load ptr, ptr %9, align 8
  %.not12 = icmp eq ptr %10, null
  br i1 %.not12, label %11, label %36

11:                                               ; preds = %8
  %12 = load ptr, ptr @date_ce_period, align 8
  %13 = load i8, ptr %12, align 8
  %14 = icmp eq i8 %13, 1
  br i1 %14, label %15, label %.preheader.i

15:                                               ; preds = %11
  %16 = load ptr, ptr @date_ce_date_object_error, align 8
  %17 = getelementptr inbounds i8, ptr %12, i64 8
  %18 = load ptr, ptr %17, align 8
  %19 = getelementptr inbounds i8, ptr %18, i64 24
  tail call void (ptr, ptr, ...) @zend_throw_error(ptr noundef %16, ptr noundef nonnull @.str.383, ptr noundef nonnull %19) #25
  br label %date_throw_uninitialized_error.exit

.preheader.i:                                     ; preds = %11, %.preheader.i
  %.0.i = phi ptr [ %21, %.preheader.i ], [ %12, %11 ]
  %20 = getelementptr inbounds i8, ptr %.0.i, i64 16
  %21 = load ptr, ptr %20, align 8
  %.not.i = icmp ne ptr %21, null
  %.pr.i = load i8, ptr %.0.i, align 8
  %22 = icmp eq i8 %.pr.i, 2
  %or.cond = select i1 %.not.i, i1 %22, i1 false
  br i1 %or.cond, label %.preheader.i, label %.critedge.i

.critedge.i:                                      ; preds = %.preheader.i
  %.not12.i = icmp eq i8 %.pr.i, 1
  br i1 %.not12.i, label %28, label %23

23:                                               ; preds = %.critedge.i
  %24 = load ptr, ptr @date_ce_date_object_error, align 8
  %25 = getelementptr inbounds i8, ptr %12, i64 8
  %26 = load ptr, ptr %25, align 8
  %27 = getelementptr inbounds i8, ptr %26, i64 24
  tail call void (ptr, ptr, ...) @zend_throw_error(ptr noundef %24, ptr noundef nonnull @.str.384, ptr noundef nonnull %27) #25
  br label %28

28:                                               ; preds = %23, %.critedge.i
  %29 = load ptr, ptr @date_ce_date_object_error, align 8
  %30 = getelementptr inbounds i8, ptr %12, i64 8
  %31 = load ptr, ptr %30, align 8
  %32 = getelementptr inbounds i8, ptr %31, i64 24
  %33 = getelementptr inbounds i8, ptr %.0.i, i64 8
  %34 = load ptr, ptr %33, align 8
  %35 = getelementptr inbounds i8, ptr %34, i64 24
  tail call void (ptr, ptr, ...) @zend_throw_error(ptr noundef %29, ptr noundef nonnull @.str.385, ptr noundef nonnull %32, ptr noundef nonnull %35) #25
  br label %date_throw_uninitialized_error.exit

36:                                               ; preds = %8
  %37 = tail call ptr @timelib_time_clone(ptr noundef nonnull %10) #25
  %38 = load ptr, ptr %3, align 8
  %39 = getelementptr inbounds i8, ptr %38, i64 16
  store ptr %37, ptr %39, align 8
  %40 = load ptr, ptr %3, align 8
  %41 = getelementptr inbounds i8, ptr %40, i64 45
  %42 = load i8, ptr %41, align 1
  %43 = and i8 %42, 1
  %.not13 = icmp eq i8 %43, 0
  br i1 %.not13, label %44, label %52

44:                                               ; preds = %36
  %45 = getelementptr inbounds i8, ptr %40, i64 16
  %46 = load ptr, ptr %45, align 8
  %47 = getelementptr inbounds i8, ptr %40, i64 32
  %48 = load ptr, ptr %47, align 8
  %49 = getelementptr inbounds i8, ptr %46, i64 212
  store i32 1, ptr %49, align 4
  %50 = getelementptr inbounds i8, ptr %46, i64 88
  tail call void @llvm.memcpy.p0.p0.i64(ptr noundef nonnull align 8 dereferenceable(104) %50, ptr noundef nonnull align 8 dereferenceable(104) %48, i64 104, i1 false)
  %51 = getelementptr inbounds i8, ptr %46, i64 220
  store i32 0, ptr %51, align 4
  tail call void @timelib_update_ts(ptr noundef %46, ptr noundef null) #25
  tail call void @timelib_update_from_sse(ptr noundef %46) #25
  br label %52

52:                                               ; preds = %44, %36
  %53 = getelementptr inbounds i8, ptr %0, i64 96
  %54 = load i8, ptr %53, align 8
  %.not.i14 = icmp eq i8 %54, 0
  br i1 %.not.i14, label %date_throw_uninitialized_error.exit, label %55

55:                                               ; preds = %52
  %56 = getelementptr inbounds i8, ptr %0, i64 88
  tail call void @zval_ptr_dtor(ptr noundef nonnull %56) #25
  store i32 0, ptr %53, align 8
  br label %date_throw_uninitialized_error.exit

date_throw_uninitialized_error.exit:              ; preds = %55, %52, %28, %15
  ret void
}